; Function Attrs: mustprogress uwtable
define noundef zeroext i1 @_ZNK32pxrInternal_v0_24__pxrReserved__12UsdAttribute3SetEPKcNS_11UsdTimeCodeE(ptr noundef nonnull align 8 dereferenceable(32) %0, ptr noundef %1, double %2) local_unnamed_addr #0 align 2 personality ptr @__gxx_personality_v0 {
  %4 = alloca %"class.std::__cxx11::basic_string", align 8
  %5 = alloca %"class.std::allocator.80", align 1
  call void @_ZNSaIcEC1Ev(ptr noundef nonnull align 1 dereferenceable(1) %5) #16
  %6 = invoke noundef ptr @_ZNSt7__cxx1112basic_stringIcSt11char_traitsIcESaIcEE13_M_local_dataEv(ptr noundef nonnull align 8 dereferenceable(32) %4)
          to label %.noexc unwind label %24

.noexc:                                           ; preds = %3
  invoke void @_ZNSt7__cxx1112basic_stringIcSt11char_traitsIcESaIcEE12_Alloc_hiderC1EPcRKS3_(ptr noundef nonnull align 8 dereferenceable(8) %4, ptr noundef %6, ptr noundef nonnull align 1 dereferenceable(1) %5)
          to label %.noexc6 unwind label %24

.noexc6:                                          ; preds = %.noexc
  %7 = icmp eq ptr %1, null
  br i1 %7, label %8, label %12

8:                                                ; preds = %.noexc6
  invoke void @_ZSt19__throw_logic_errorPKc(ptr noundef nonnull @.str.10) #18
          to label %9 unwind label %10

9:                                                ; preds = %8
  unreachable

10:                                               ; preds = %12, %8
  %11 = landingpad { ptr, i32 }
          cleanup
  call void @_ZNSaIcED2Ev(ptr noundef nonnull align 1 dereferenceable(1) %4) #16
  br label %.body

12:                                               ; preds = %.noexc6
  %13 = call noundef i64 @strlen(ptr noundef nonnull dereferenceable(1) %1) #16
  %14 = getelementptr inbounds i8, ptr %1, i64 %13
  invoke void @_ZNSt7__cxx1112basic_stringIcSt11char_traitsIcESaIcEE12_M_constructIPKcEEvT_S8_St20forward_iterator_tag(ptr noundef nonnull align 8 dereferenceable(32) %4, ptr noundef nonnull %1, ptr noundef nonnull %14)
          to label %_ZNSt7__cxx1112basic_stringIcSt11char_traitsIcESaIcEEC2IS3_EEPKcRKS3_.exit unwind label %10

_ZNSt7__cxx1112basic_stringIcSt11char_traitsIcESaIcEEC2IS3_EEPKcRKS3_.exit: ; preds = %12
  call void @_ZNSaIcED1Ev(ptr noundef nonnull align 1 dereferenceable(1) %5) #16
  %15 = getelementptr inbounds nuw i8, ptr %0, i64 8
  %16 = load ptr, ptr %15, align 8
  %.not.i.i.i = icmp eq ptr %16, null
  br i1 %.not.i.i.i, label %21, label %17

17:                                               ; preds = %_ZNSt7__cxx1112basic_stringIcSt11char_traitsIcESaIcEEC2IS3_EEPKcRKS3_.exit
  %18 = getelementptr inbounds nuw i8, ptr %16, i64 56
  %19 = load i64, ptr %18, align 8
  %20 = and i64 %19, 2048
  %.not5.i.i.i = icmp eq i64 %20, 0
  br i1 %.not5.i.i.i, label %_ZNK32pxrInternal_v0_24__pxrReserved__9UsdObject9_GetStageEv.exit.i, label %21

21:                                               ; preds = %17, %_ZNSt7__cxx1112basic_stringIcSt11char_traitsIcESaIcEEC2IS3_EEPKcRKS3_.exit
  invoke void @_ZN32pxrInternal_v0_24__pxrReserved__31Usd_ThrowExpiredPrimAccessErrorEPKNS_12Usd_PrimDataE(ptr noundef %16)
          to label %_ZNK32pxrInternal_v0_24__pxrReserved__9UsdObject9_GetStageEv.exit.i unwind label %26

_ZNK32pxrInternal_v0_24__pxrReserved__9UsdObject9_GetStageEv.exit.i: ; preds = %21, %17
  %22 = load ptr, ptr %16, align 8
  %23 = invoke noundef zeroext i1 @_ZN32pxrInternal_v0_24__pxrReserved__8UsdStage9_SetValueINSt7__cxx1112basic_stringIcSt11char_traitsIcESaIcEEEEENSt9enable_ifIXntsr21_IsEditTargetMappableIT_EE5valueEbE4typeENS_11UsdTimeCodeERKNS_12UsdAttributeERKS9_(ptr noundef nonnull align 8 dereferenceable(1282) %22, double %2, ptr noundef nonnull align 8 dereferenceable(32) %0, ptr noundef nonnull align 8 dereferenceable(32) %4)
          to label %_ZNK32pxrInternal_v0_24__pxrReserved__12UsdAttribute4_SetINSt7__cxx1112basic_stringIcSt11char_traitsIcESaIcEEEEEbRKT_NS_11UsdTimeCodeE.exit unwind label %26

_ZNK32pxrInternal_v0_24__pxrReserved__12UsdAttribute4_SetINSt7__cxx1112basic_stringIcSt11char_traitsIcESaIcEEEEEbRKT_NS_11UsdTimeCodeE.exit: ; preds = %_ZNK32pxrInternal_v0_24__pxrReserved__9UsdObject9_GetStageEv.exit.i
  call void @_ZNSt7__cxx1112basic_stringIcSt11char_traitsIcESaIcEED1Ev(ptr noundef nonnull align 8 dereferenceable(32) %4) #16
  ret i1 %23

24:                                               ; preds = %.noexc, %3
  %25 = landingpad { ptr, i32 }
          cleanup
  br label %.body

.body:                                            ; preds = %10, %24
  %eh.lpad-body = phi { ptr, i32 } [ %25, %24 ], [ %11, %10 ]
  call void @_ZNSaIcED1Ev(ptr noundef nonnull align 1 dereferenceable(1) %5) #16
  br label %28

26:                                               ; preds = %_ZNK32pxrInternal_v0_24__pxrReserved__9UsdObject9_GetStageEv.exit.i, %21
  %27 = landingpad { ptr, i32 }
          cleanup
  call void @_ZNSt7__cxx1112basic_stringIcSt11char_traitsIcESaIcEED1Ev(ptr noundef nonnull align 8 dereferenceable(32) %4) #16
  br label %28

28:                                               ; preds = %26, %.body
  %.pn = phi { ptr, i32 } [ %27, %26 ], [ %eh.lpad-body, %.body ]
  resume { ptr, i32 } %.pn
}